; Function Attrs: mustprogress nounwind uwtable
define noundef zeroext i1 @_ZNK9grpc_core16CommonTlsContext5EmptyEv(ptr noundef nonnull align 8 dereferenceable(152) %this) local_unnamed_addr #4 align 2 {
entry:
  %tls_certificate_provider_instance = getelementptr inbounds i8, ptr %this, i64 88
  %call.i = tail call noundef zeroext i1 @_ZNKSt7__cxx1112basic_stringIcSt11char_traitsIcESaIcEE5emptyEv(ptr noundef nonnull align 8 dereferenceable(32) %tls_certificate_provider_instance) #20
  br i1 %call.i, label %_ZNK9grpc_core16CommonTlsContext33CertificateProviderPluginInstance5EmptyEv.exit, label %land.end

_ZNK9grpc_core16CommonTlsContext33CertificateProviderPluginInstance5EmptyEv.exit: ; preds = %entry
  %certificate_name.i = getelementptr inbounds i8, ptr %this, i64 120
  %call2.i = tail call noundef zeroext i1 @_ZNKSt7__cxx1112basic_stringIcSt11char_traitsIcESaIcEE5emptyEv(ptr noundef nonnull align 8 dereferenceable(32) %certificate_name.i) #20
  br i1 %call2.i, label %land.rhs, label %land.end

land.rhs:                                         ; preds = %_ZNK9grpc_core16CommonTlsContext33CertificateProviderPluginInstance5EmptyEv.exit
  %match_subject_alt_names.i = getelementptr inbounds i8, ptr %this, i64 64
  %0 = load ptr, ptr %match_subject_alt_names.i, align 8
  %_M_finish.i.i.i = getelementptr inbounds i8, ptr %this, i64 72
  %1 = load ptr, ptr %_M_finish.i.i.i, align 8
  %cmp.i.i.i = icmp eq ptr %0, %1
  br label %land.end

land.end:                                         ; preds = %entry, %land.rhs, %_ZNK9grpc_core16CommonTlsContext33CertificateProviderPluginInstance5EmptyEv.exit
  %2 = phi i1 [ false, %_ZNK9grpc_core16CommonTlsContext33CertificateProviderPluginInstance5EmptyEv.exit ], [ %cmp.i.i.i, %land.rhs ], [ false, %entry ]
  ret i1 %2
}